target datalayout = "e-m:e-p270:32:32-p271:32:32-p272:64:64-i64:64-i128:128-f80:128-n8:16:32:64-S128"
target triple = "x86_64-pc-linux-gnu"

%struct.nghttp2_session = type { %struct.nghttp2_map, %struct.nghttp2_outbound_queue, %struct.nghttp2_outbound_queue, %struct.nghttp2_outbound_queue, [8 x %struct.anon], %struct.nghttp2_active_outbound_item, %struct.nghttp2_inbound_frame, %struct.nghttp2_hd_deflater, %struct.nghttp2_hd_inflater, %struct.nghttp2_session_callbacks, %struct.nghttp2_mem, ptr, ptr, %struct.nghttp2_ratelim, i64, i64, i64, i64, i64, i64, i64, i64, i64, i64, i64, i64, i64, i64, i32, i32, i32, i32, i32, i32, i32, i32, i32, i32, i32, i32, i8, %struct.nghttp2_settings_storage, %struct.nghttp2_settings_storage, i32, i32, i32, i8, i8, i8, i8, i8, i8, [32 x i8] }
%struct.nghttp2_map = type { ptr, ptr, i64, i64 }
%struct.nghttp2_outbound_queue = type { ptr, ptr, i64 }
%struct.anon = type { %struct.nghttp2_pq }
%struct.nghttp2_pq = type { ptr, ptr, i64, i64, ptr }
%struct.nghttp2_active_outbound_item = type { ptr, %struct.nghttp2_bufs, i32 }
%struct.nghttp2_bufs = type { ptr, ptr, ptr, i64, i64, i64, i64, i64 }
%struct.nghttp2_inbound_frame = type { %union.nghttp2_frame, %union.nghttp2_ext_frame_payload, ptr, %struct.nghttp2_buf, %struct.nghttp2_buf, ptr, i64, i64, i64, i64, i32, [32 x i8] }
%union.nghttp2_frame = type { %struct.nghttp2_headers }
%struct.nghttp2_headers = type { %struct.nghttp2_frame_hd, i64, %struct.nghttp2_priority_spec, ptr, i64, i32 }
%struct.nghttp2_frame_hd = type { i64, i32, i8, i8, i8 }
%struct.nghttp2_priority_spec = type { i32, i32, i8 }
%union.nghttp2_ext_frame_payload = type { %struct.nghttp2_ext_altsvc }
%struct.nghttp2_ext_altsvc = type { ptr, i64, ptr, i64 }
%struct.nghttp2_buf = type { ptr, ptr, ptr, ptr, ptr }
%struct.nghttp2_hd_deflater = type { %struct.nghttp2_hd_context, %struct.nghttp2_hd_map, i64, i64, i8 }
%struct.nghttp2_hd_context = type { %struct.nghttp2_hd_ringbuf, ptr, i64, i64, i32, i8 }
%struct.nghttp2_hd_ringbuf = type { ptr, i64, i64, i64 }
%struct.nghttp2_hd_map = type { [128 x ptr] }
%struct.nghttp2_hd_inflater = type { %struct.nghttp2_hd_context, %struct.nghttp2_hd_huff_decode_context, %struct.nghttp2_buf, %struct.nghttp2_buf, ptr, ptr, ptr, ptr, i64, i64, i64, i64, i64, i32, i32, i8, i8, i8 }
%struct.nghttp2_hd_huff_decode_context = type { i16 }
%struct.nghttp2_session_callbacks = type { ptr, ptr, ptr, ptr, ptr, ptr, ptr, ptr, ptr, ptr, ptr, ptr, ptr, ptr, ptr, ptr, ptr, ptr, ptr, ptr, ptr, ptr, ptr, ptr, ptr, ptr, ptr, ptr }
%struct.nghttp2_mem = type { ptr, ptr, ptr, ptr, ptr }
%struct.nghttp2_ratelim = type { i64, i64, i64, i64 }
%struct.nghttp2_settings_storage = type { i32, i32, i32, i32, i32, i32, i32, i32 }
%struct.nghttp2_outbound_item = type { %union.nghttp2_frame, %union.nghttp2_ext_frame_payload, %union.nghttp2_aux_data, i64, ptr, i8 }
%union.nghttp2_aux_data = type { %struct.nghttp2_headers_aux_data }
%struct.nghttp2_headers_aux_data = type { %struct.nghttp2_data_provider_wrap, ptr, i32, i8 }
%struct.nghttp2_data_provider_wrap = type { i32, %union.anon }
%union.anon = type { %struct.anon.0 }
%struct.anon.0 = type { %union.nghttp2_data_source, ptr }
%union.nghttp2_data_source = type { ptr }

; Function Attrs: nounwind uwtable
define internal i32 @session_terminate_session(ptr noundef %0, i32 noundef %1, i32 noundef %2, ptr noundef %3) #0 {
  %5 = alloca i32, align 4
  %6 = alloca ptr, align 8
  %7 = alloca i32, align 4
  %8 = alloca i32, align 4
  %9 = alloca ptr, align 8
  %10 = alloca i32, align 4
  %11 = alloca ptr, align 8
  %12 = alloca i64, align 8
  %13 = alloca i32, align 4
  store ptr %0, ptr %6, align 8, !tbaa !7
  store i32 %1, ptr %7, align 4, !tbaa !3
  store i32 %2, ptr %8, align 4, !tbaa !3
  store ptr %3, ptr %9, align 8, !tbaa !38
  call void @llvm.lifetime.start.p0(i64 4, ptr %10) #10
  call void @llvm.lifetime.start.p0(i64 8, ptr %11) #10
  call void @llvm.lifetime.start.p0(i64 8, ptr %12) #10
  %14 = load ptr, ptr %6, align 8, !tbaa !7
  %15 = getelementptr inbounds nuw %struct.nghttp2_session, ptr %14, i32 0, i32 50
  %16 = load i8, ptr %15, align 4, !tbaa !39
  %17 = zext i8 %16 to i32
  %18 = and i32 %17, 1
  %19 = icmp ne i32 %18, 0
  br i1 %19, label %20, label %21

20:                                               ; preds = %4
  store i32 0, ptr %5, align 4
  store i32 1, ptr %13, align 4
  br label %50

21:                                               ; preds = %4
  %22 = load ptr, ptr %6, align 8, !tbaa !7
  %23 = getelementptr inbounds nuw %struct.nghttp2_session, ptr %22, i32 0, i32 6
  %24 = getelementptr inbounds nuw %struct.nghttp2_inbound_frame, ptr %23, i32 0, i32 10
  store i32 15, ptr %24, align 8, !tbaa !40
  %25 = load ptr, ptr %9, align 8, !tbaa !38
  %26 = icmp eq ptr %25, null
  br i1 %26, label %27, label %28

27:                                               ; preds = %21
  store ptr null, ptr %11, align 8, !tbaa !38
  store i64 0, ptr %12, align 8, !tbaa !41
  br label %32

28:                                               ; preds = %21
  %29 = load ptr, ptr %9, align 8, !tbaa !38
  store ptr %29, ptr %11, align 8, !tbaa !38
  %30 = load ptr, ptr %9, align 8, !tbaa !38
  %31 = call i64 @strlen(ptr noundef %30) #11
  store i64 %31, ptr %12, align 8, !tbaa !41
  br label %32

32:                                               ; preds = %28, %27
  %33 = load ptr, ptr %6, align 8, !tbaa !7
  %34 = load i32, ptr %7, align 4, !tbaa !3
  %35 = load i32, ptr %8, align 4, !tbaa !3
  %36 = load ptr, ptr %11, align 8, !tbaa !38
  %37 = load i64, ptr %12, align 8, !tbaa !41
  %38 = call i32 @nghttp2_session_add_goaway(ptr noundef %33, i32 noundef %34, i32 noundef %35, ptr noundef %36, i64 noundef %37, i8 noundef zeroext 1)
  store i32 %38, ptr %10, align 4, !tbaa !3
  %39 = load i32, ptr %10, align 4, !tbaa !3
  %40 = icmp ne i32 %39, 0
  br i1 %40, label %41, label %43

41:                                               ; preds = %32
  %42 = load i32, ptr %10, align 4, !tbaa !3
  store i32 %42, ptr %5, align 4
  store i32 1, ptr %13, align 4
  br label %50

43:                                               ; preds = %32
  %44 = load ptr, ptr %6, align 8, !tbaa !7
  %45 = getelementptr inbounds nuw %struct.nghttp2_session, ptr %44, i32 0, i32 50
  %46 = load i8, ptr %45, align 4, !tbaa !39
  %47 = zext i8 %46 to i32
  %48 = or i32 %47, 1
  %49 = trunc i32 %48 to i8
  store i8 %49, ptr %45, align 4, !tbaa !39
  store i32 0, ptr %5, align 4
  store i32 1, ptr %13, align 4
  br label %50

50:                                               ; preds = %43, %41, %20
  call void @llvm.lifetime.end.p0(i64 8, ptr %12) #10
  call void @llvm.lifetime.end.p0(i64 8, ptr %11) #10
  call void @llvm.lifetime.end.p0(i64 4, ptr %10) #10
  %51 = load i32, ptr %5, align 4
  ret i32 %51
}

; Function Attrs: nounwind uwtable
define hidden i32 @nghttp2_session_add_window_update(ptr noundef %0, i8 noundef zeroext %1, i32 noundef %2, i32 noundef %3) #0 {
  %5 = alloca i32, align 4
  %6 = alloca ptr, align 8
  %7 = alloca i8, align 1
  %8 = alloca i32, align 4
  %9 = alloca i32, align 4
  %10 = alloca i32, align 4
  %11 = alloca ptr, align 8
  %12 = alloca ptr, align 8
  %13 = alloca ptr, align 8
  %14 = alloca i32, align 4
  store ptr %0, ptr %6, align 8, !tbaa !7
  store i8 %1, ptr %7, align 1, !tbaa !117
  store i32 %2, ptr %8, align 4, !tbaa !3
  store i32 %3, ptr %9, align 4, !tbaa !3
  call void @llvm.lifetime.start.p0(i64 4, ptr %10) #10
  call void @llvm.lifetime.start.p0(i64 8, ptr %11) #10
  call void @llvm.lifetime.start.p0(i64 8, ptr %12) #10
  call void @llvm.lifetime.start.p0(i64 8, ptr %13) #10
  %15 = load ptr, ptr %6, align 8, !tbaa !7
  %16 = getelementptr inbounds nuw %struct.nghttp2_session, ptr %15, i32 0, i32 10
  store ptr %16, ptr %13, align 8, !tbaa !53
  %17 = load ptr, ptr %13, align 8, !tbaa !53
  %18 = call ptr @nghttp2_mem_malloc(ptr noundef %17, i64 noundef 160)
  store ptr %18, ptr %11, align 8, !tbaa !108
  %19 = load ptr, ptr %11, align 8, !tbaa !108
  %20 = icmp eq ptr %19, null
  br i1 %20, label %21, label %22

21:                                               ; preds = %4
  store i32 -901, ptr %5, align 4
  store i32 1, ptr %14, align 4
  br label %41

22:                                               ; preds = %4
  %23 = load ptr, ptr %11, align 8, !tbaa !108
  call void @nghttp2_outbound_item_init(ptr noundef %23)
  %24 = load ptr, ptr %11, align 8, !tbaa !108
  %25 = getelementptr inbounds nuw %struct.nghttp2_outbound_item, ptr %24, i32 0, i32 0
  store ptr %25, ptr %12, align 8, !tbaa !53
  %26 = load ptr, ptr %12, align 8, !tbaa !53
  %27 = load i8, ptr %7, align 1, !tbaa !117
  %28 = load i32, ptr %8, align 4, !tbaa !3
  %29 = load i32, ptr %9, align 4, !tbaa !3
  call void @nghttp2_frame_window_update_init(ptr noundef %26, i8 noundef zeroext %27, i32 noundef %28, i32 noundef %29)
  %30 = load ptr, ptr %6, align 8, !tbaa !7
  %31 = load ptr, ptr %11, align 8, !tbaa !108
  %32 = call i32 @nghttp2_session_add_item(ptr noundef %30, ptr noundef %31)
  store i32 %32, ptr %10, align 4, !tbaa !3
  %33 = load i32, ptr %10, align 4, !tbaa !3
  %34 = icmp ne i32 %33, 0
  br i1 %34, label %35, label %40

35:                                               ; preds = %22
  %36 = load ptr, ptr %12, align 8, !tbaa !53
  call void @nghttp2_frame_window_update_free(ptr noundef %36)
  %37 = load ptr, ptr %13, align 8, !tbaa !53
  %38 = load ptr, ptr %11, align 8, !tbaa !108
  call void @nghttp2_mem_free(ptr noundef %37, ptr noundef %38)
  %39 = load i32, ptr %10, align 4, !tbaa !3
  store i32 %39, ptr %5, align 4
  store i32 1, ptr %14, align 4
  br label %41

40:                                               ; preds = %22
  store i32 0, ptr %5, align 4
  store i32 1, ptr %14, align 4
  br label %41

41:                                               ; preds = %40, %35, %21
  call void @llvm.lifetime.end.p0(i64 8, ptr %13) #10
  call void @llvm.lifetime.end.p0(i64 8, ptr %12) #10
  call void @llvm.lifetime.end.p0(i64 8, ptr %11) #10
  call void @llvm.lifetime.end.p0(i64 4, ptr %10) #10
  %42 = load i32, ptr %5, align 4
  ret i32 %42
}

; Function Attrs: nounwind uwtable
define i32 @nghttp2_session_terminate_session(ptr noundef %0, i32 noundef %1) #0 {
  %3 = alloca ptr, align 8
  %4 = alloca i32, align 4
  store ptr %0, ptr %3, align 8, !tbaa !7
  store i32 %1, ptr %4, align 4, !tbaa !3
  %5 = load ptr, ptr %3, align 8, !tbaa !7
  %6 = load ptr, ptr %3, align 8, !tbaa !7
  %7 = getelementptr inbounds nuw %struct.nghttp2_session, ptr %6, i32 0, i32 31
  %8 = load i32, ptr %7, align 4, !tbaa !10
  %9 = load i32, ptr %4, align 4, !tbaa !3
  %10 = call i32 @session_terminate_session(ptr noundef %5, i32 noundef %8, i32 noundef %9, ptr noundef null)
  ret i32 %10
}

; Function Attrs: nounwind uwtable
define internal i32 @adjust_recv_window_size(ptr noundef %0, i64 noundef %1, i32 noundef %2) #0 {
  %4 = alloca i32, align 4
  %5 = alloca ptr, align 8
  %6 = alloca i64, align 8
  %7 = alloca i32, align 4
  store ptr %0, ptr %5, align 8, !tbaa !222
  store i64 %1, ptr %6, align 8, !tbaa !41
  store i32 %2, ptr %7, align 4, !tbaa !3
  %8 = load ptr, ptr %5, align 8, !tbaa !222
  %9 = load i32, ptr %8, align 4, !tbaa !3
  %10 = load i32, ptr %7, align 4, !tbaa !3
  %11 = load i64, ptr %6, align 8, !tbaa !41
  %12 = trunc i64 %11 to i32
  %13 = sub nsw i32 %10, %12
  %14 = icmp sgt i32 %9, %13
  br i1 %14, label %22, label %15

15:                                               ; preds = %3
  %16 = load ptr, ptr %5, align 8, !tbaa !222
  %17 = load i32, ptr %16, align 4, !tbaa !3
  %18 = load i64, ptr %6, align 8, !tbaa !41
  %19 = trunc i64 %18 to i32
  %20 = sub nsw i32 2147483647, %19
  %21 = icmp sgt i32 %17, %20
  br i1 %21, label %22, label %23

22:                                               ; preds = %15, %3
  store i32 -1, ptr %4, align 4
  br label %29

23:                                               ; preds = %15
  %24 = load i64, ptr %6, align 8, !tbaa !41
  %25 = trunc i64 %24 to i32
  %26 = load ptr, ptr %5, align 8, !tbaa !222
  %27 = load i32, ptr %26, align 4, !tbaa !3
  %28 = add nsw i32 %27, %25
  store i32 %28, ptr %26, align 4, !tbaa !3
  store i32 0, ptr %4, align 4
  br label %29

29:                                               ; preds = %23, %22
  %30 = load i32, ptr %4, align 4
  ret i32 %30
}

; Function Attrs: nounwind uwtable
define hidden i32 @nghttp2_session_update_recv_connection_window_size(ptr noundef %0, i64 noundef %1) #0 {
  %3 = alloca i32, align 4
  %4 = alloca ptr, align 8
  %5 = alloca i64, align 8
  %6 = alloca i32, align 4
  %7 = alloca i32, align 4
  store ptr %0, ptr %4, align 8, !tbaa !7
  store i64 %1, ptr %5, align 8, !tbaa !41
  call void @llvm.lifetime.start.p0(i64 4, ptr %6) #10
  %8 = load ptr, ptr %4, align 8, !tbaa !7
  %9 = getelementptr inbounds nuw %struct.nghttp2_session, ptr %8, i32 0, i32 36
  %10 = load i64, ptr %5, align 8, !tbaa !41
  %11 = load ptr, ptr %4, align 8, !tbaa !7
  %12 = getelementptr inbounds nuw %struct.nghttp2_session, ptr %11, i32 0, i32 39
  %13 = load i32, ptr %12, align 4, !tbaa !62
  %14 = call i32 @adjust_recv_window_size(ptr noundef %9, i64 noundef %10, i32 noundef %13)
  store i32 %14, ptr %6, align 4, !tbaa !3
  %15 = load i32, ptr %6, align 4, !tbaa !3
  %16 = icmp ne i32 %15, 0
  br i1 %16, label %17, label %20

17:                                               ; preds = %2
  %18 = load ptr, ptr %4, align 8, !tbaa !7
  %19 = call i32 @nghttp2_session_terminate_session(ptr noundef %18, i32 noundef 3)
  store i32 %19, ptr %3, align 4
  store i32 1, ptr %7, align 4
  br label %55

20:                                               ; preds = %2
  %21 = load ptr, ptr %4, align 8, !tbaa !7
  %22 = getelementptr inbounds nuw %struct.nghttp2_session, ptr %21, i32 0, i32 43
  %23 = load i32, ptr %22, align 4, !tbaa !77
  %24 = and i32 %23, 1
  %25 = icmp ne i32 %24, 0
  br i1 %25, label %54, label %26

26:                                               ; preds = %20
  %27 = load ptr, ptr %4, align 8, !tbaa !7
  %28 = getelementptr inbounds nuw %struct.nghttp2_session, ptr %27, i32 0, i32 51
  %29 = load i8, ptr %28, align 1, !tbaa !128
  %30 = zext i8 %29 to i32
  %31 = icmp eq i32 %30, 0
  br i1 %31, label %32, label %54

32:                                               ; preds = %26
  %33 = load ptr, ptr %4, align 8, !tbaa !7
  %34 = getelementptr inbounds nuw %struct.nghttp2_session, ptr %33, i32 0, i32 39
  %35 = load i32, ptr %34, align 4, !tbaa !62
  %36 = load ptr, ptr %4, align 8, !tbaa !7
  %37 = getelementptr inbounds nuw %struct.nghttp2_session, ptr %36, i32 0, i32 36
  %38 = load i32, ptr %37, align 8, !tbaa !59
  %39 = call i32 @nghttp2_should_send_window_update(i32 noundef %35, i32 noundef %38)
  %40 = icmp ne i32 %39, 0
  br i1 %40, label %41, label %54

41:                                               ; preds = %32
  %42 = load ptr, ptr %4, align 8, !tbaa !7
  %43 = load ptr, ptr %4, align 8, !tbaa !7
  %44 = getelementptr inbounds nuw %struct.nghttp2_session, ptr %43, i32 0, i32 36
  %45 = load i32, ptr %44, align 8, !tbaa !59
  %46 = call i32 @nghttp2_session_add_window_update(ptr noundef %42, i8 noundef zeroext 0, i32 noundef 0, i32 noundef %45)
  store i32 %46, ptr %6, align 4, !tbaa !3
  %47 = load i32, ptr %6, align 4, !tbaa !3
  %48 = icmp ne i32 %47, 0
  br i1 %48, label %49, label %51

49:                                               ; preds = %41
  %50 = load i32, ptr %6, align 4, !tbaa !3
  store i32 %50, ptr %3, align 4
  store i32 1, ptr %7, align 4
  br label %55

51:                                               ; preds = %41
  %52 = load ptr, ptr %4, align 8, !tbaa !7
  %53 = getelementptr inbounds nuw %struct.nghttp2_session, ptr %52, i32 0, i32 36
  store i32 0, ptr %53, align 8, !tbaa !59
  br label %54

54:                                               ; preds = %51, %32, %26, %20
  store i32 0, ptr %3, align 4
  store i32 1, ptr %7, align 4
  br label %55

55:                                               ; preds = %54, %49, %17
  call void @llvm.lifetime.end.p0(i64 4, ptr %6) #10
  %56 = load i32, ptr %3, align 4
  ret i32 %56
}