; Function Attrs: nounwind uwtable
define hidden i32 @nghttp2_session_update_recv_connection_window_size(ptr noundef %0, i64 noundef %1) local_unnamed_addr #1 {
  %3 = getelementptr inbounds nuw i8, ptr %0, i64 2576
  %4 = getelementptr inbounds nuw i8, ptr %0, i64 2588
  %5 = load i32, ptr %4, align 4, !tbaa !52
  %6 = load i32, ptr %3, align 4, !tbaa !94
  %7 = trunc i64 %1 to i32
  %8 = sub nsw i32 %5, %7
  %9 = icmp sgt i32 %6, %8
  %10 = sub nsw i32 2147483647, %7
  %11 = icmp sgt i32 %6, %10
  %or.cond.i = select i1 %9, i1 true, i1 %11
  br i1 %or.cond.i, label %adjust_recv_window_size.exit, label %23

adjust_recv_window_size.exit:                     ; preds = %2
  %12 = getelementptr inbounds nuw i8, ptr %0, i64 2676
  %13 = load i8, ptr %12, align 4, !tbaa !3
  %14 = and i8 %13, 1
  %.not.i.i = icmp eq i8 %14, 0
  br i1 %.not.i.i, label %15, label %nghttp2_session_terminate_session.exit

15:                                               ; preds = %adjust_recv_window_size.exit
  %16 = getelementptr inbounds nuw i8, ptr %0, i64 2556
  %17 = load i32, ptr %16, align 4, !tbaa !35
  %18 = getelementptr inbounds nuw i8, ptr %0, i64 728
  store i32 15, ptr %18, align 8, !tbaa !36
  %19 = tail call i32 @nghttp2_session_add_goaway(ptr noundef nonnull %0, i32 noundef %17, i32 noundef 3, ptr noundef null, i64 noundef 0, i8 noundef zeroext 1)
  %.not17.i.i = icmp eq i32 %19, 0
  br i1 %.not17.i.i, label %20, label %nghttp2_session_terminate_session.exit

20:                                               ; preds = %15
  %21 = load i8, ptr %12, align 4, !tbaa !3
  %22 = or i8 %21, 1
  store i8 %22, ptr %12, align 4, !tbaa !3
  br label %nghttp2_session_terminate_session.exit

23:                                               ; preds = %2
  %24 = add nsw i32 %6, %7
  store i32 %24, ptr %3, align 4, !tbaa !94
  %25 = getelementptr inbounds nuw i8, ptr %0, i64 2660
  %26 = load i32, ptr %25, align 4, !tbaa !74
  %27 = and i32 %26, 1
  %.not15 = icmp eq i32 %27, 0
  br i1 %.not15, label %28, label %nghttp2_session_terminate_session.exit

28:                                               ; preds = %23
  %29 = getelementptr inbounds nuw i8, ptr %0, i64 2677
  %30 = load i8, ptr %29, align 1, !tbaa !121
  %31 = icmp eq i8 %30, 0
  br i1 %31, label %32, label %nghttp2_session_terminate_session.exit

32:                                               ; preds = %28
  %33 = tail call i32 @nghttp2_should_send_window_update(i32 noundef %5, i32 noundef %24) #16
  %.not16 = icmp eq i32 %33, 0
  br i1 %.not16, label %nghttp2_session_terminate_session.exit, label %34

34:                                               ; preds = %32
  %35 = load i32, ptr %3, align 8, !tbaa !49
  %36 = getelementptr inbounds nuw i8, ptr %0, i64 2344
  %37 = tail call ptr @nghttp2_mem_malloc(ptr noundef nonnull %36, i64 noundef 160) #16
  %38 = icmp eq ptr %37, null
  br i1 %38, label %nghttp2_session_terminate_session.exit, label %39

39:                                               ; preds = %34
  tail call void @nghttp2_outbound_item_init(ptr noundef nonnull %37) #16
  tail call void @nghttp2_frame_window_update_init(ptr noundef nonnull %37, i8 noundef zeroext 0, i32 noundef 0, i32 noundef %35) #16
  %40 = tail call i32 @nghttp2_session_add_item(ptr noundef nonnull %0, ptr noundef nonnull %37)
  %.not.i = icmp eq i32 %40, 0
  br i1 %.not.i, label %nghttp2_session_add_window_update.exit, label %41

41:                                               ; preds = %39
  tail call void @nghttp2_frame_window_update_free(ptr noundef nonnull %37) #16
  tail call void @nghttp2_mem_free(ptr noundef nonnull %36, ptr noundef nonnull %37) #16
  br label %nghttp2_session_terminate_session.exit

nghttp2_session_add_window_update.exit:           ; preds = %39
  store i32 0, ptr %3, align 8, !tbaa !49
  br label %nghttp2_session_terminate_session.exit

nghttp2_session_terminate_session.exit:           ; preds = %34, %41, %20, %15, %adjust_recv_window_size.exit, %23, %28, %32, %nghttp2_session_add_window_update.exit
  %.0 = phi i32 [ 0, %nghttp2_session_add_window_update.exit ], [ 0, %32 ], [ 0, %28 ], [ 0, %23 ], [ 0, %20 ], [ 0, %adjust_recv_window_size.exit ], [ %19, %15 ], [ -901, %34 ], [ %40, %41 ]
  ret i32 %.0
}